target datalayout = "e-m:e-p270:32:32-p271:32:32-p272:64:64-i64:64-i128:128-f80:128-n8:16:32:64-S128"
target triple = "x86_64-pc-linux-gnu"

%struct.AVMotionEstContext = type { ptr, ptr, i32, i32, i32, i32, i32, i32, i32, i32, i32, i32, i32, [2 x %struct.AVMotionEstPredictor], ptr }
%struct.AVMotionEstPredictor = type { [10 x [2 x i32]], i32 }

@dia1 = internal constant [4 x [2 x i8]] [[2 x i8] c"\FF\00", [2 x i8] c"\00\FF", [2 x i8] c"\01\00", [2 x i8] c"\00\01"], align 1
@hex2 = internal constant [6 x [2 x i8]] [[2 x i8] c"\FE\00", [2 x i8] c"\FF\FE", [2 x i8] c"\FF\02", [2 x i8] c"\01\FE", [2 x i8] c"\01\02", [2 x i8] c"\02\00"], align 1

; Function Attrs: nounwind uwtable
define i64 @ff_me_search_hexbs(ptr noundef %0, i32 noundef %1, i32 noundef %2, ptr noundef %3) #0 {
  %5 = alloca i64, align 8
  %6 = alloca ptr, align 8
  %7 = alloca i32, align 4
  %8 = alloca i32, align 4
  %9 = alloca ptr, align 8
  %10 = alloca i32, align 4
  %11 = alloca i32, align 4
  %12 = alloca i32, align 4
  %13 = alloca i32, align 4
  %14 = alloca i32, align 4
  %15 = alloca i32, align 4
  %16 = alloca i64, align 8
  %17 = alloca i64, align 8
  %18 = alloca i32, align 4
  %19 = alloca i32, align 4
  store ptr %0, ptr %6, align 8, !tbaa !4
  store i32 %1, ptr %7, align 4, !tbaa !9
  store i32 %2, ptr %8, align 4, !tbaa !9
  store ptr %3, ptr %9, align 8, !tbaa !32
  call void @llvm.lifetime.start.p0(i64 4, ptr %10) #2
  call void @llvm.lifetime.start.p0(i64 4, ptr %11) #2
  call void @llvm.lifetime.start.p0(i64 4, ptr %12) #2
  %20 = load ptr, ptr %6, align 8, !tbaa !4
  %21 = getelementptr inbounds nuw %struct.AVMotionEstContext, ptr %20, i32 0, i32 7
  %22 = load i32, ptr %21, align 4, !tbaa !18
  %23 = load i32, ptr %7, align 4, !tbaa !9
  %24 = load ptr, ptr %6, align 8, !tbaa !4
  %25 = getelementptr inbounds nuw %struct.AVMotionEstContext, ptr %24, i32 0, i32 4
  %26 = load i32, ptr %25, align 8, !tbaa !16
  %27 = sub nsw i32 %23, %26
  %28 = icmp sgt i32 %22, %27
  br i1 %28, label %29, label %33

29:                                               ; preds = %4
  %30 = load ptr, ptr %6, align 8, !tbaa !4
  %31 = getelementptr inbounds nuw %struct.AVMotionEstContext, ptr %30, i32 0, i32 7
  %32 = load i32, ptr %31, align 4, !tbaa !18
  br label %39

33:                                               ; preds = %4
  %34 = load i32, ptr %7, align 4, !tbaa !9
  %35 = load ptr, ptr %6, align 8, !tbaa !4
  %36 = getelementptr inbounds nuw %struct.AVMotionEstContext, ptr %35, i32 0, i32 4
  %37 = load i32, ptr %36, align 8, !tbaa !16
  %38 = sub nsw i32 %34, %37
  br label %39

39:                                               ; preds = %33, %29
  %40 = phi i32 [ %32, %29 ], [ %38, %33 ]
  store i32 %40, ptr %12, align 4, !tbaa !9
  call void @llvm.lifetime.start.p0(i64 4, ptr %13) #2
  %41 = load ptr, ptr %6, align 8, !tbaa !4
  %42 = getelementptr inbounds nuw %struct.AVMotionEstContext, ptr %41, i32 0, i32 9
  %43 = load i32, ptr %42, align 4, !tbaa !20
  %44 = load i32, ptr %8, align 4, !tbaa !9
  %45 = load ptr, ptr %6, align 8, !tbaa !4
  %46 = getelementptr inbounds nuw %struct.AVMotionEstContext, ptr %45, i32 0, i32 4
  %47 = load i32, ptr %46, align 8, !tbaa !16
  %48 = sub nsw i32 %44, %47
  %49 = icmp sgt i32 %43, %48
  br i1 %49, label %50, label %54

50:                                               ; preds = %39
  %51 = load ptr, ptr %6, align 8, !tbaa !4
  %52 = getelementptr inbounds nuw %struct.AVMotionEstContext, ptr %51, i32 0, i32 9
  %53 = load i32, ptr %52, align 4, !tbaa !20
  br label %60

54:                                               ; preds = %39
  %55 = load i32, ptr %8, align 4, !tbaa !9
  %56 = load ptr, ptr %6, align 8, !tbaa !4
  %57 = getelementptr inbounds nuw %struct.AVMotionEstContext, ptr %56, i32 0, i32 4
  %58 = load i32, ptr %57, align 8, !tbaa !16
  %59 = sub nsw i32 %55, %58
  br label %60

60:                                               ; preds = %54, %50
  %61 = phi i32 [ %53, %50 ], [ %59, %54 ]
  store i32 %61, ptr %13, align 4, !tbaa !9
  call void @llvm.lifetime.start.p0(i64 4, ptr %14) #2
  %62 = load i32, ptr %7, align 4, !tbaa !9
  %63 = load ptr, ptr %6, align 8, !tbaa !4
  %64 = getelementptr inbounds nuw %struct.AVMotionEstContext, ptr %63, i32 0, i32 4
  %65 = load i32, ptr %64, align 8, !tbaa !16
  %66 = add nsw i32 %62, %65
  %67 = load ptr, ptr %6, align 8, !tbaa !4
  %68 = getelementptr inbounds nuw %struct.AVMotionEstContext, ptr %67, i32 0, i32 8
  %69 = load i32, ptr %68, align 8, !tbaa !19
  %70 = icmp sgt i32 %66, %69
  br i1 %70, label %71, label %75

71:                                               ; preds = %60
  %72 = load ptr, ptr %6, align 8, !tbaa !4
  %73 = getelementptr inbounds nuw %struct.AVMotionEstContext, ptr %72, i32 0, i32 8
  %74 = load i32, ptr %73, align 8, !tbaa !19
  br label %81

75:                                               ; preds = %60
  %76 = load i32, ptr %7, align 4, !tbaa !9
  %77 = load ptr, ptr %6, align 8, !tbaa !4
  %78 = getelementptr inbounds nuw %struct.AVMotionEstContext, ptr %77, i32 0, i32 4
  %79 = load i32, ptr %78, align 8, !tbaa !16
  %80 = add nsw i32 %76, %79
  br label %81

81:                                               ; preds = %75, %71
  %82 = phi i32 [ %74, %71 ], [ %80, %75 ]
  store i32 %82, ptr %14, align 4, !tbaa !9
  call void @llvm.lifetime.start.p0(i64 4, ptr %15) #2
  %83 = load i32, ptr %8, align 4, !tbaa !9
  %84 = load ptr, ptr %6, align 8, !tbaa !4
  %85 = getelementptr inbounds nuw %struct.AVMotionEstContext, ptr %84, i32 0, i32 4
  %86 = load i32, ptr %85, align 8, !tbaa !16
  %87 = add nsw i32 %83, %86
  %88 = load ptr, ptr %6, align 8, !tbaa !4
  %89 = getelementptr inbounds nuw %struct.AVMotionEstContext, ptr %88, i32 0, i32 10
  %90 = load i32, ptr %89, align 8, !tbaa !21
  %91 = icmp sgt i32 %87, %90
  br i1 %91, label %92, label %96

92:                                               ; preds = %81
  %93 = load ptr, ptr %6, align 8, !tbaa !4
  %94 = getelementptr inbounds nuw %struct.AVMotionEstContext, ptr %93, i32 0, i32 10
  %95 = load i32, ptr %94, align 8, !tbaa !21
  br label %102

96:                                               ; preds = %81
  %97 = load i32, ptr %8, align 4, !tbaa !9
  %98 = load ptr, ptr %6, align 8, !tbaa !4
  %99 = getelementptr inbounds nuw %struct.AVMotionEstContext, ptr %98, i32 0, i32 4
  %100 = load i32, ptr %99, align 8, !tbaa !16
  %101 = add nsw i32 %97, %100
  br label %102

102:                                              ; preds = %96, %92
  %103 = phi i32 [ %95, %92 ], [ %101, %96 ]
  store i32 %103, ptr %15, align 4, !tbaa !9
  call void @llvm.lifetime.start.p0(i64 8, ptr %16) #2
  call void @llvm.lifetime.start.p0(i64 8, ptr %17) #2
  call void @llvm.lifetime.start.p0(i64 4, ptr %18) #2
  %104 = load ptr, ptr %6, align 8, !tbaa !4
  %105 = getelementptr inbounds nuw %struct.AVMotionEstContext, ptr %104, i32 0, i32 14
  %106 = load ptr, ptr %105, align 8, !tbaa !17
  %107 = load ptr, ptr %6, align 8, !tbaa !4
  %108 = load i32, ptr %7, align 4, !tbaa !9
  %109 = load i32, ptr %8, align 4, !tbaa !9
  %110 = load i32, ptr %7, align 4, !tbaa !9
  %111 = load i32, ptr %8, align 4, !tbaa !9
  %112 = call i64 %106(ptr noundef %107, i32 noundef %108, i32 noundef %109, i32 noundef %110, i32 noundef %111)
  store i64 %112, ptr %17, align 8, !tbaa !26
  %113 = icmp ne i64 %112, 0
  br i1 %113, label %116, label %114

114:                                              ; preds = %102
  %115 = load i64, ptr %17, align 8, !tbaa !26
  store i64 %115, ptr %5, align 8
  store i32 1, ptr %19, align 4
  br label %350

116:                                              ; preds = %102
  br label %117

117:                                              ; preds = %241, %116
  %118 = load ptr, ptr %9, align 8, !tbaa !32
  %119 = getelementptr inbounds i32, ptr %118, i64 0
  %120 = load i32, ptr %119, align 4, !tbaa !9
  store i32 %120, ptr %10, align 4, !tbaa !9
  %121 = load ptr, ptr %9, align 8, !tbaa !32
  %122 = getelementptr inbounds i32, ptr %121, i64 1
  %123 = load i32, ptr %122, align 4, !tbaa !9
  store i32 %123, ptr %11, align 4, !tbaa !9
  store i32 0, ptr %18, align 4, !tbaa !9
  br label %124

124:                                              ; preds = %225, %117
  %125 = load i32, ptr %18, align 4, !tbaa !9
  %126 = icmp slt i32 %125, 6
  br i1 %126, label %127, label %228

127:                                              ; preds = %124
  %128 = load i32, ptr %10, align 4, !tbaa !9
  %129 = load i32, ptr %18, align 4, !tbaa !9
  %130 = sext i32 %129 to i64
  %131 = getelementptr inbounds [6 x [2 x i8]], ptr @hex2, i64 0, i64 %130
  %132 = getelementptr inbounds [2 x i8], ptr %131, i64 0, i64 0
  %133 = load i8, ptr %132, align 1, !tbaa !28
  %134 = sext i8 %133 to i32
  %135 = add nsw i32 %128, %134
  %136 = load i32, ptr %12, align 4, !tbaa !9
  %137 = icmp sge i32 %135, %136
  br i1 %137, label %138, label %224

138:                                              ; preds = %127
  %139 = load i32, ptr %10, align 4, !tbaa !9
  %140 = load i32, ptr %18, align 4, !tbaa !9
  %141 = sext i32 %140 to i64
  %142 = getelementptr inbounds [6 x [2 x i8]], ptr @hex2, i64 0, i64 %141
  %143 = getelementptr inbounds [2 x i8], ptr %142, i64 0, i64 0
  %144 = load i8, ptr %143, align 1, !tbaa !28
  %145 = sext i8 %144 to i32
  %146 = add nsw i32 %139, %145
  %147 = load i32, ptr %14, align 4, !tbaa !9
  %148 = icmp sle i32 %146, %147
  br i1 %148, label %149, label %224

149:                                              ; preds = %138
  %150 = load i32, ptr %11, align 4, !tbaa !9
  %151 = load i32, ptr %18, align 4, !tbaa !9
  %152 = sext i32 %151 to i64
  %153 = getelementptr inbounds [6 x [2 x i8]], ptr @hex2, i64 0, i64 %152
  %154 = getelementptr inbounds [2 x i8], ptr %153, i64 0, i64 1
  %155 = load i8, ptr %154, align 1, !tbaa !28
  %156 = sext i8 %155 to i32
  %157 = add nsw i32 %150, %156
  %158 = load i32, ptr %13, align 4, !tbaa !9
  %159 = icmp sge i32 %157, %158
  br i1 %159, label %160, label %224

160:                                              ; preds = %149
  %161 = load i32, ptr %11, align 4, !tbaa !9
  %162 = load i32, ptr %18, align 4, !tbaa !9
  %163 = sext i32 %162 to i64
  %164 = getelementptr inbounds [6 x [2 x i8]], ptr @hex2, i64 0, i64 %163
  %165 = getelementptr inbounds [2 x i8], ptr %164, i64 0, i64 1
  %166 = load i8, ptr %165, align 1, !tbaa !28
  %167 = sext i8 %166 to i32
  %168 = add nsw i32 %161, %167
  %169 = load i32, ptr %15, align 4, !tbaa !9
  %170 = icmp sle i32 %168, %169
  br i1 %170, label %171, label %224

171:                                              ; preds = %160
  br label %172

172:                                              ; preds = %171
  %173 = load ptr, ptr %6, align 8, !tbaa !4
  %174 = getelementptr inbounds nuw %struct.AVMotionEstContext, ptr %173, i32 0, i32 14
  %175 = load ptr, ptr %174, align 8, !tbaa !17
  %176 = load ptr, ptr %6, align 8, !tbaa !4
  %177 = load i32, ptr %7, align 4, !tbaa !9
  %178 = load i32, ptr %8, align 4, !tbaa !9
  %179 = load i32, ptr %10, align 4, !tbaa !9
  %180 = load i32, ptr %18, align 4, !tbaa !9
  %181 = sext i32 %180 to i64
  %182 = getelementptr inbounds [6 x [2 x i8]], ptr @hex2, i64 0, i64 %181
  %183 = getelementptr inbounds [2 x i8], ptr %182, i64 0, i64 0
  %184 = load i8, ptr %183, align 1, !tbaa !28
  %185 = sext i8 %184 to i32
  %186 = add nsw i32 %179, %185
  %187 = load i32, ptr %11, align 4, !tbaa !9
  %188 = load i32, ptr %18, align 4, !tbaa !9
  %189 = sext i32 %188 to i64
  %190 = getelementptr inbounds [6 x [2 x i8]], ptr @hex2, i64 0, i64 %189
  %191 = getelementptr inbounds [2 x i8], ptr %190, i64 0, i64 1
  %192 = load i8, ptr %191, align 1, !tbaa !28
  %193 = sext i8 %192 to i32
  %194 = add nsw i32 %187, %193
  %195 = call i64 %175(ptr noundef %176, i32 noundef %177, i32 noundef %178, i32 noundef %186, i32 noundef %194)
  store i64 %195, ptr %16, align 8, !tbaa !26
  %196 = load i64, ptr %16, align 8, !tbaa !26
  %197 = load i64, ptr %17, align 8, !tbaa !26
  %198 = icmp ult i64 %196, %197
  br i1 %198, label %199, label %221

199:                                              ; preds = %172
  %200 = load i64, ptr %16, align 8, !tbaa !26
  store i64 %200, ptr %17, align 8, !tbaa !26
  %201 = load i32, ptr %10, align 4, !tbaa !9
  %202 = load i32, ptr %18, align 4, !tbaa !9
  %203 = sext i32 %202 to i64
  %204 = getelementptr inbounds [6 x [2 x i8]], ptr @hex2, i64 0, i64 %203
  %205 = getelementptr inbounds [2 x i8], ptr %204, i64 0, i64 0
  %206 = load i8, ptr %205, align 1, !tbaa !28
  %207 = sext i8 %206 to i32
  %208 = add nsw i32 %201, %207
  %209 = load ptr, ptr %9, align 8, !tbaa !32
  %210 = getelementptr inbounds i32, ptr %209, i64 0
  store i32 %208, ptr %210, align 4, !tbaa !9
  %211 = load i32, ptr %11, align 4, !tbaa !9
  %212 = load i32, ptr %18, align 4, !tbaa !9
  %213 = sext i32 %212 to i64
  %214 = getelementptr inbounds [6 x [2 x i8]], ptr @hex2, i64 0, i64 %213
  %215 = getelementptr inbounds [2 x i8], ptr %214, i64 0, i64 1
  %216 = load i8, ptr %215, align 1, !tbaa !28
  %217 = sext i8 %216 to i32
  %218 = add nsw i32 %211, %217
  %219 = load ptr, ptr %9, align 8, !tbaa !32
  %220 = getelementptr inbounds i32, ptr %219, i64 1
  store i32 %218, ptr %220, align 4, !tbaa !9
  br label %221

221:                                              ; preds = %199, %172
  br label %222

222:                                              ; preds = %221
  br label %223

223:                                              ; preds = %222
  br label %224

224:                                              ; preds = %223, %160, %149, %138, %127
  br label %225

225:                                              ; preds = %224
  %226 = load i32, ptr %18, align 4, !tbaa !9
  %227 = add nsw i32 %226, 1
  store i32 %227, ptr %18, align 4, !tbaa !9
  br label %124, !llvm.loop !49

228:                                              ; preds = %124
  br label %229

229:                                              ; preds = %228
  %230 = load i32, ptr %10, align 4, !tbaa !9
  %231 = load ptr, ptr %9, align 8, !tbaa !32
  %232 = getelementptr inbounds i32, ptr %231, i64 0
  %233 = load i32, ptr %232, align 4, !tbaa !9
  %234 = icmp ne i32 %230, %233
  br i1 %234, label %241, label %235

235:                                              ; preds = %229
  %236 = load i32, ptr %11, align 4, !tbaa !9
  %237 = load ptr, ptr %9, align 8, !tbaa !32
  %238 = getelementptr inbounds i32, ptr %237, i64 1
  %239 = load i32, ptr %238, align 4, !tbaa !9
  %240 = icmp ne i32 %236, %239
  br label %241

241:                                              ; preds = %235, %229
  %242 = phi i1 [ true, %229 ], [ %240, %235 ]
  br i1 %242, label %117, label %243, !llvm.loop !50

243:                                              ; preds = %241
  store i32 0, ptr %18, align 4, !tbaa !9
  br label %244

244:                                              ; preds = %345, %243
  %245 = load i32, ptr %18, align 4, !tbaa !9
  %246 = icmp slt i32 %245, 4
  br i1 %246, label %247, label %348

247:                                              ; preds = %244
  %248 = load i32, ptr %10, align 4, !tbaa !9
  %249 = load i32, ptr %18, align 4, !tbaa !9
  %250 = sext i32 %249 to i64
  %251 = getelementptr inbounds [4 x [2 x i8]], ptr @dia1, i64 0, i64 %250
  %252 = getelementptr inbounds [2 x i8], ptr %251, i64 0, i64 0
  %253 = load i8, ptr %252, align 1, !tbaa !28
  %254 = sext i8 %253 to i32
  %255 = add nsw i32 %248, %254
  %256 = load i32, ptr %12, align 4, !tbaa !9
  %257 = icmp sge i32 %255, %256
  br i1 %257, label %258, label %344

258:                                              ; preds = %247
  %259 = load i32, ptr %10, align 4, !tbaa !9
  %260 = load i32, ptr %18, align 4, !tbaa !9
  %261 = sext i32 %260 to i64
  %262 = getelementptr inbounds [4 x [2 x i8]], ptr @dia1, i64 0, i64 %261
  %263 = getelementptr inbounds [2 x i8], ptr %262, i64 0, i64 0
  %264 = load i8, ptr %263, align 1, !tbaa !28
  %265 = sext i8 %264 to i32
  %266 = add nsw i32 %259, %265
  %267 = load i32, ptr %14, align 4, !tbaa !9
  %268 = icmp sle i32 %266, %267
  br i1 %268, label %269, label %344

269:                                              ; preds = %258
  %270 = load i32, ptr %11, align 4, !tbaa !9
  %271 = load i32, ptr %18, align 4, !tbaa !9
  %272 = sext i32 %271 to i64
  %273 = getelementptr inbounds [4 x [2 x i8]], ptr @dia1, i64 0, i64 %272
  %274 = getelementptr inbounds [2 x i8], ptr %273, i64 0, i64 1
  %275 = load i8, ptr %274, align 1, !tbaa !28
  %276 = sext i8 %275 to i32
  %277 = add nsw i32 %270, %276
  %278 = load i32, ptr %13, align 4, !tbaa !9
  %279 = icmp sge i32 %277, %278
  br i1 %279, label %280, label %344

280:                                              ; preds = %269
  %281 = load i32, ptr %11, align 4, !tbaa !9
  %282 = load i32, ptr %18, align 4, !tbaa !9
  %283 = sext i32 %282 to i64
  %284 = getelementptr inbounds [4 x [2 x i8]], ptr @dia1, i64 0, i64 %283
  %285 = getelementptr inbounds [2 x i8], ptr %284, i64 0, i64 1
  %286 = load i8, ptr %285, align 1, !tbaa !28
  %287 = sext i8 %286 to i32
  %288 = add nsw i32 %281, %287
  %289 = load i32, ptr %15, align 4, !tbaa !9
  %290 = icmp sle i32 %288, %289
  br i1 %290, label %291, label %344

291:                                              ; preds = %280
  br label %292

292:                                              ; preds = %291
  %293 = load ptr, ptr %6, align 8, !tbaa !4
  %294 = getelementptr inbounds nuw %struct.AVMotionEstContext, ptr %293, i32 0, i32 14
  %295 = load ptr, ptr %294, align 8, !tbaa !17
  %296 = load ptr, ptr %6, align 8, !tbaa !4
  %297 = load i32, ptr %7, align 4, !tbaa !9
  %298 = load i32, ptr %8, align 4, !tbaa !9
  %299 = load i32, ptr %10, align 4, !tbaa !9
  %300 = load i32, ptr %18, align 4, !tbaa !9
  %301 = sext i32 %300 to i64
  %302 = getelementptr inbounds [4 x [2 x i8]], ptr @dia1, i64 0, i64 %301
  %303 = getelementptr inbounds [2 x i8], ptr %302, i64 0, i64 0
  %304 = load i8, ptr %303, align 1, !tbaa !28
  %305 = sext i8 %304 to i32
  %306 = add nsw i32 %299, %305
  %307 = load i32, ptr %11, align 4, !tbaa !9
  %308 = load i32, ptr %18, align 4, !tbaa !9
  %309 = sext i32 %308 to i64
  %310 = getelementptr inbounds [4 x [2 x i8]], ptr @dia1, i64 0, i64 %309
  %311 = getelementptr inbounds [2 x i8], ptr %310, i64 0, i64 1
  %312 = load i8, ptr %311, align 1, !tbaa !28
  %313 = sext i8 %312 to i32
  %314 = add nsw i32 %307, %313
  %315 = call i64 %295(ptr noundef %296, i32 noundef %297, i32 noundef %298, i32 noundef %306, i32 noundef %314)
  store i64 %315, ptr %16, align 8, !tbaa !26
  %316 = load i64, ptr %16, align 8, !tbaa !26
  %317 = load i64, ptr %17, align 8, !tbaa !26
  %318 = icmp ult i64 %316, %317
  br i1 %318, label %319, label %341

319:                                              ; preds = %292
  %320 = load i64, ptr %16, align 8, !tbaa !26
  store i64 %320, ptr %17, align 8, !tbaa !26
  %321 = load i32, ptr %10, align 4, !tbaa !9
  %322 = load i32, ptr %18, align 4, !tbaa !9
  %323 = sext i32 %322 to i64
  %324 = getelementptr inbounds [4 x [2 x i8]], ptr @dia1, i64 0, i64 %323
  %325 = getelementptr inbounds [2 x i8], ptr %324, i64 0, i64 0
  %326 = load i8, ptr %325, align 1, !tbaa !28
  %327 = sext i8 %326 to i32
  %328 = add nsw i32 %321, %327
  %329 = load ptr, ptr %9, align 8, !tbaa !32
  %330 = getelementptr inbounds i32, ptr %329, i64 0
  store i32 %328, ptr %330, align 4, !tbaa !9
  %331 = load i32, ptr %11, align 4, !tbaa !9
  %332 = load i32, ptr %18, align 4, !tbaa !9
  %333 = sext i32 %332 to i64
  %334 = getelementptr inbounds [4 x [2 x i8]], ptr @dia1, i64 0, i64 %333
  %335 = getelementptr inbounds [2 x i8], ptr %334, i64 0, i64 1
  %336 = load i8, ptr %335, align 1, !tbaa !28
  %337 = sext i8 %336 to i32
  %338 = add nsw i32 %331, %337
  %339 = load ptr, ptr %9, align 8, !tbaa !32
  %340 = getelementptr inbounds i32, ptr %339, i64 1
  store i32 %338, ptr %340, align 4, !tbaa !9
  br label %341

341:                                              ; preds = %319, %292
  br label %342

342:                                              ; preds = %341
  br label %343

343:                                              ; preds = %342
  br label %344

344:                                              ; preds = %343, %280, %269, %258, %247
  br label %345

345:                                              ; preds = %344
  %346 = load i32, ptr %18, align 4, !tbaa !9
  %347 = add nsw i32 %346, 1
  store i32 %347, ptr %18, align 4, !tbaa !9
  br label %244, !llvm.loop !51

348:                                              ; preds = %244
  %349 = load i64, ptr %17, align 8, !tbaa !26
  store i64 %349, ptr %5, align 8
  store i32 1, ptr %19, align 4
  br label %350

350:                                              ; preds = %348, %114
  call void @llvm.lifetime.end.p0(i64 4, ptr %18) #2
  call void @llvm.lifetime.end.p0(i64 8, ptr %17) #2
  call void @llvm.lifetime.end.p0(i64 8, ptr %16) #2
  call void @llvm.lifetime.end.p0(i64 4, ptr %15) #2
  call void @llvm.lifetime.end.p0(i64 4, ptr %14) #2
  call void @llvm.lifetime.end.p0(i64 4, ptr %13) #2
  call void @llvm.lifetime.end.p0(i64 4, ptr %12) #2
  call void @llvm.lifetime.end.p0(i64 4, ptr %11) #2
  call void @llvm.lifetime.end.p0(i64 4, ptr %10) #2
  %351 = load i64, ptr %5, align 8
  ret i64 %351
}